; Function Attrs: mustprogress nofree norecurse nosync nounwind willreturn memory(argmem: read) uwtable
define noundef range(i32 0, 2) i32 @_ZN6LibRaw15is_curve_linearEv(ptr noundef nonnull readonly align 8 captures(none) dereferenceable(767680) %0) local_unnamed_addr #12 align 2 {
  %2 = getelementptr inbounds nuw i8, ptr %0, i64 5504
  br label %3

3:                                                ; preds = %3, %1
  %indvars.iv = phi i64 [ 0, %1 ], [ %indvars.iv.next, %3 ]
  %4 = getelementptr inbounds nuw [65536 x i16], ptr %2, i64 0, i64 %indvars.iv
  %5 = load i16, ptr %4, align 2, !tbaa !106
  %6 = zext i16 %5 to i64
  %.not = icmp eq i64 %indvars.iv, %6
  %indvars.iv.next = add nuw nsw i64 %indvars.iv, 1
  %exitcond = icmp ne i64 %indvars.iv.next, 65536
  %or.cond.not = select i1 %.not, i1 %exitcond, i1 false
  br i1 %or.cond.not, label %3, label %7, !llvm.loop !107

7:                                                ; preds = %3
  %spec.select = zext i1 %.not to i32
  ret i32 %spec.select
}